; Function Attrs: mustprogress uwtable
define dso_local void @_ZN4Luau7CodeGen20translateInstBinaryKERNS0_9IrBuilderEPKji3TMS(ptr noundef nonnull align 8 dereferenceable(752) %0, ptr noundef readonly captures(none) %1, i32 noundef %2, i32 noundef %3) local_unnamed_addr #0 {
  %5 = load i32, ptr %1, align 4, !tbaa !4
  %6 = lshr i32 %5, 8
  %7 = and i32 %6, 255
  %8 = lshr i32 %5, 16
  %9 = and i32 %8, 255
  %10 = trunc i32 %8 to i8
  %11 = tail call i32 @_ZN4Luau7CodeGen9IrBuilder5vmRegEh(ptr noundef nonnull align 8 dereferenceable(752) %0, i8 noundef zeroext %10)
  %12 = load i32, ptr %1, align 4, !tbaa !4
  %13 = lshr i32 %12, 24
  %14 = tail call i32 @_ZN4Luau7CodeGen9IrBuilder7vmConstEj(ptr noundef nonnull align 8 dereferenceable(752) %0, i32 noundef %13)
  tail call fastcc void @_ZN4Luau7CodeGenL26translateInstBinaryNumericERNS0_9IrBuilderEiiiNS0_4IrOpES3_i3TMS(ptr noundef nonnull align 8 dereferenceable(752) %0, i32 noundef %7, i32 noundef %9, i32 noundef -1, i32 %11, i32 %14, i32 noundef %2, i32 noundef %3)
  ret void
}